; Function Attrs: mustprogress nounwind uwtable
define internal void @_ZN12_GLOBAL__N_127AArch64SpeculationHardeningD0Ev(ptr noundef nonnull align 8 dereferenceable(232) %0) unnamed_addr #0 align 2 {
  store ptr getelementptr inbounds inrange(-16, 176) (i8, ptr @_ZTVN12_GLOBAL__N_127AArch64SpeculationHardeningE, i64 16), ptr %0, align 8
  %2 = getelementptr inbounds nuw i8, ptr %0, i64 160
  %3 = tail call noundef i64 @_ZNK4llvm15SmallVectorBaseIjE4sizeEv(ptr noundef nonnull align 8 dereferenceable(16) %2) #16
  %4 = load ptr, ptr %2, align 8
  %5 = getelementptr inbounds i8, ptr %0, i64 176
  %6 = icmp eq ptr %4, %5
  br i1 %6, label %_ZN4llvm9BitVectorD2Ev.exit.i, label %7

7:                                                ; preds = %1
  tail call void @free(ptr noundef %4) #16
  br label %_ZN4llvm9BitVectorD2Ev.exit.i

_ZN4llvm9BitVectorD2Ev.exit.i:                    ; preds = %7, %1
  %8 = getelementptr inbounds nuw i8, ptr %0, i64 88
  %9 = tail call noundef i64 @_ZNK4llvm15SmallVectorBaseIjE4sizeEv(ptr noundef nonnull align 8 dereferenceable(16) %8) #16
  %10 = load ptr, ptr %8, align 8
  %11 = getelementptr inbounds i8, ptr %0, i64 104
  %12 = icmp eq ptr %10, %11
  br i1 %12, label %_ZN12_GLOBAL__N_127AArch64SpeculationHardeningD2Ev.exit, label %13

13:                                               ; preds = %_ZN4llvm9BitVectorD2Ev.exit.i
  tail call void @free(ptr noundef %10) #16
  br label %_ZN12_GLOBAL__N_127AArch64SpeculationHardeningD2Ev.exit

_ZN12_GLOBAL__N_127AArch64SpeculationHardeningD2Ev.exit: ; preds = %_ZN4llvm9BitVectorD2Ev.exit.i, %13
  tail call void @_ZN4llvm4PassD2Ev(ptr noundef nonnull align 8 dereferenceable(28) %0) #16
  tail call void @_ZdlPvm(ptr noundef nonnull %0, i64 noundef 232) #19
  ret void
}